; ModuleID = '14/721.c'
source_filename = "14/721.c"
target datalayout = "e-m:e-p270:32:32-p271:32:32-p272:64:64-i64:64-f80:128-n8:16:32:64-S128"
target triple = "x86_64-pc-linux-gnu"

@.str = private unnamed_addr constant [3 x i8] c"%d\00", align 1
@.str.1 = private unnamed_addr constant [7 x i8] c"%d%d%d\00", align 1
@.str.2 = private unnamed_addr constant [7 x i8] c"%d %d\0A\00", align 1

; Function Attrs: noinline nounwind uwtable
define dso_local i32 @main() #0 {
  %1 = alloca i32, align 4
  %2 = alloca i32, align 4
  %3 = alloca i32, align 4
  %4 = alloca i32, align 4
  %5 = alloca i32, align 4
  %6 = alloca i32, align 4
  %7 = alloca i32, align 4
  %8 = alloca i32, align 4
  %9 = alloca i32, align 4
  %10 = alloca i32, align 4
  %11 = alloca i32, align 4
  %12 = alloca i32, align 4
  %13 = alloca i32, align 4
  store i32 0, i32* %1, align 4
  store i32 0, i32* %8, align 4
  store i32 0, i32* %9, align 4
  store i32 0, i32* %10, align 4
  store i32 0, i32* %11, align 4
  store i32 0, i32* %12, align 4
  store i32 0, i32* %13, align 4
  %14 = call i32 (i8*, ...) @__isoc99_scanf(i8* getelementptr inbounds ([3 x i8], [3 x i8]* @.str, i64 0, i64 0), i32* %6)
  store i32 1, i32* %7, align 4
  br label %15

15:                                               ; preds = %61, %0
  %16 = load i32, i32* %7, align 4
  %17 = load i32, i32* %6, align 4
  %18 = icmp sle i32 %16, %17
  br i1 %18, label %19, label %64

19:                                               ; preds = %15
  %20 = call i32 (i8*, ...) @__isoc99_scanf(i8* getelementptr inbounds ([7 x i8], [7 x i8]* @.str.1, i64 0, i64 0), i32* %2, i32* %3, i32* %4)
  %21 = load i32, i32* %3, align 4
  %22 = load i32, i32* %4, align 4
  %23 = add nsw i32 %21, %22
  store i32 %23, i32* %5, align 4
  %24 = load i32, i32* %5, align 4
  %25 = load i32, i32* %8, align 4
  %26 = icmp sgt i32 %24, %25
  br i1 %26, label %27, label %34

27:                                               ; preds = %19
  %28 = load i32, i32* %9, align 4
  store i32 %28, i32* %10, align 4
  %29 = load i32, i32* %12, align 4
  store i32 %29, i32* %13, align 4
  %30 = load i32, i32* %8, align 4
  store i32 %30, i32* %9, align 4
  %31 = load i32, i32* %11, align 4
  store i32 %31, i32* %12, align 4
  %32 = load i32, i32* %5, align 4
  store i32 %32, i32* %8, align 4
  %33 = load i32, i32* %2, align 4
  store i32 %33, i32* %11, align 4
  br label %60

34:                                               ; preds = %19
  %35 = load i32, i32* %5, align 4
  %36 = load i32, i32* %8, align 4
  %37 = icmp sle i32 %35, %36
  br i1 %37, label %38, label %47

38:                                               ; preds = %34
  %39 = load i32, i32* %5, align 4
  %40 = load i32, i32* %9, align 4
  %41 = icmp sgt i32 %39, %40
  br i1 %41, label %42, label %47

42:                                               ; preds = %38
  %43 = load i32, i32* %9, align 4
  store i32 %43, i32* %10, align 4
  %44 = load i32, i32* %12, align 4
  store i32 %44, i32* %13, align 4
  %45 = load i32, i32* %5, align 4
  store i32 %45, i32* %9, align 4
  %46 = load i32, i32* %2, align 4
  store i32 %46, i32* %12, align 4
  br label %59

47:                                               ; preds = %38, %34
  %48 = load i32, i32* %5, align 4
  %49 = load i32, i32* %9, align 4
  %50 = icmp sle i32 %48, %49
  br i1 %50, label %51, label %58

51:                                               ; preds = %47
  %52 = load i32, i32* %5, align 4
  %53 = load i32, i32* %10, align 4
  %54 = icmp sgt i32 %52, %53
  br i1 %54, label %55, label %58

55:                                               ; preds = %51
  %56 = load i32, i32* %5, align 4
  store i32 %56, i32* %10, align 4
  %57 = load i32, i32* %2, align 4
  store i32 %57, i32* %13, align 4
  br label %58

58:                                               ; preds = %55, %51, %47
  br label %59

59:                                               ; preds = %58, %42
  br label %60

60:                                               ; preds = %59, %27
  br label %61

61:                                               ; preds = %60
  %62 = load i32, i32* %7, align 4
  %63 = add nsw i32 %62, 1
  store i32 %63, i32* %7, align 4
  br label %15

64:                                               ; preds = %15
  %65 = load i32, i32* %11, align 4
  %66 = load i32, i32* %8, align 4
  %67 = call i32 (i8*, ...) @printf(i8* getelementptr inbounds ([7 x i8], [7 x i8]* @.str.2, i64 0, i64 0), i32 %65, i32 %66)
  %68 = load i32, i32* %12, align 4
  %69 = load i32, i32* %9, align 4
  %70 = call i32 (i8*, ...) @printf(i8* getelementptr inbounds ([7 x i8], [7 x i8]* @.str.2, i64 0, i64 0), i32 %68, i32 %69)
  %71 = load i32, i32* %13, align 4
  %72 = load i32, i32* %10, align 4
  %73 = call i32 (i8*, ...) @printf(i8* getelementptr inbounds ([7 x i8], [7 x i8]* @.str.2, i64 0, i64 0), i32 %71, i32 %72)
  ret i32 0
}

declare dso_local i32 @__isoc99_scanf(i8*, ...) #1

declare dso_local i32 @printf(i8*, ...) #1


!llvm.module.flags = !{!0}
!llvm.ident = !{!1}

!0 = !{i32 1, !"wchar_size", i32 4}
!1 = !{!"clang version 10.0.0-4ubuntu1 "}
